; Function Attrs: nounwind uwtable
define dso_local void @srun_step_complete(ptr noundef readonly captures(none) %0) local_unnamed_addr #0 {
  %2 = alloca ptr, align 8
  %3 = getelementptr inbounds nuw i8, ptr %0, i64 192
  %4 = load i16, ptr %3, align 8
  %.not = icmp eq i16 %4, 0
  br i1 %.not, label %39, label %5

5:                                                ; preds = %1
  %6 = getelementptr inbounds nuw i8, ptr %0, i64 128
  %7 = load ptr, ptr %6, align 8
  %.not11 = icmp eq ptr %7, null
  br i1 %.not11, label %39, label %8

8:                                                ; preds = %5
  %9 = load i8, ptr %7, align 1
  %.not12 = icmp eq i8 %9, 0
  br i1 %.not12, label %39, label %10

10:                                               ; preds = %8
  call void @llvm.lifetime.start.p0(i64 8, ptr nonnull %2) #6
  %11 = tail call ptr @slurm_xcalloc(i64 noundef 1, i64 noundef 128, i1 noundef zeroext true, i1 noundef zeroext false, ptr noundef nonnull @.str, i32 noundef 114, ptr noundef nonnull @__func__._srun_set_addr) #6
  %12 = load ptr, ptr %6, align 8
  %13 = tail call ptr @slurm_conf_get_nodeaddr(ptr noundef %12) #6
  store ptr %13, ptr %2, align 8
  %.not.i = icmp eq ptr %13, null
  %14 = load i16, ptr %3, align 8
  br i1 %.not.i, label %16, label %15

15:                                               ; preds = %10
  tail call void @slurm_set_addr(ptr noundef %11, i16 noundef zeroext %14, ptr noundef nonnull %13) #6
  call void @slurm_xfree(ptr noundef nonnull %2) #6
  br label %_srun_set_addr.exit

16:                                               ; preds = %10
  %17 = load ptr, ptr %6, align 8
  tail call void @slurm_set_addr(ptr noundef %11, i16 noundef zeroext %14, ptr noundef %17) #6
  br label %_srun_set_addr.exit

_srun_set_addr.exit:                              ; preds = %15, %16
  call void @llvm.lifetime.end.p0(i64 8, ptr nonnull %2) #6
  %18 = call ptr @slurm_xcalloc(i64 noundef 1, i64 noundef 24, i1 noundef zeroext true, i1 noundef zeroext false, ptr noundef nonnull @.str, i32 noundef 526, ptr noundef nonnull @__func__.srun_step_complete) #6
  %19 = getelementptr inbounds nuw i8, ptr %0, i64 280
  call void @llvm.memcpy.p0.p0.i64(ptr noundef nonnull align 8 dereferenceable(24) %18, ptr noundef nonnull align 8 dereferenceable(24) %19, i64 24, i1 false)
  %20 = load ptr, ptr %6, align 8
  %21 = getelementptr inbounds nuw i8, ptr %0, i64 136
  %22 = load ptr, ptr %21, align 8
  %23 = getelementptr inbounds nuw i8, ptr %22, i64 1096
  %24 = load i32, ptr %23, align 8
  %25 = getelementptr inbounds nuw i8, ptr %0, i64 208
  %26 = load i16, ptr %25, align 8
  %27 = call ptr @slurm_xcalloc(i64 noundef 1, i64 noundef 56, i1 noundef zeroext true, i1 noundef zeroext false, ptr noundef nonnull @.str, i32 noundef 61, ptr noundef nonnull @__func__._srun_agent_launch) #6
  store i32 1, ptr %27, align 8
  %28 = getelementptr inbounds nuw i8, ptr %27, i64 4
  store i16 0, ptr %28, align 4
  %29 = getelementptr inbounds nuw i8, ptr %27, i64 16
  store ptr %11, ptr %29, align 8
  %30 = call ptr @hostlist_create(ptr noundef %20) #6
  %31 = getelementptr inbounds nuw i8, ptr %27, i64 24
  store ptr %30, ptr %31, align 8
  %32 = getelementptr inbounds nuw i8, ptr %27, i64 36
  store i32 7004, ptr %32, align 4
  %33 = getelementptr inbounds nuw i8, ptr %27, i64 40
  store ptr %18, ptr %33, align 8
  call void @set_agent_arg_r_uid(ptr noundef nonnull %27, i32 noundef %24) #6
  %34 = call i16 @llvm.umin.i16(i16 %26, i16 11008)
  %35 = getelementptr inbounds nuw i8, ptr %27, i64 32
  store i16 %34, ptr %35, align 8
  %36 = load ptr, ptr @stepmgr_ops, align 8
  %37 = getelementptr inbounds nuw i8, ptr %36, i64 64
  %38 = load ptr, ptr %37, align 8
  call void %38(ptr noundef nonnull %27) #6
  br label %39

39:                                               ; preds = %_srun_set_addr.exit, %8, %5, %1
  ret void
}